; Function Attrs: mustprogress uwtable
define dso_local void @_ZN4Draw10DrawStringEiiPKcz(ptr noundef nonnull readnone align 8 captures(none) dereferenceable(216) %0, i32 noundef %1, i32 noundef %2, ptr noundef %3, ...) local_unnamed_addr #5 align 2 {
  %5 = alloca [1 x %struct.__va_list_tag], align 16
  %6 = alloca %struct.ImVec2, align 4
  %7 = alloca %struct.ImVec4, align 8
  call void @llvm.lifetime.start.p0(i64 24, ptr nonnull %5) #18
  call void @llvm.va_start.p0(ptr nonnull %5)
  %8 = call noundef zeroext i1 @_ZN5ImGui5BeginEPKcPbi(ptr noundef nonnull @.str, ptr noundef null, i32 noundef 197193)
  %9 = load ptr, ptr getelementptr inbounds nuw (i8, ptr @g_draw, i64 192), align 8, !tbaa !163
  call void @_ZN5ImGui8PushFontEP6ImFont(ptr noundef %9)
  call void @llvm.lifetime.start.p0(i64 8, ptr nonnull %6) #18
  %10 = sitofp i32 %1 to float
  %11 = sitofp i32 %2 to float
  store float %10, ptr %6, align 4, !tbaa !38
  %12 = getelementptr inbounds nuw i8, ptr %6, i64 4
  store float %11, ptr %12, align 4, !tbaa !40
  call void @_ZN5ImGui12SetCursorPosERK6ImVec2(ptr noundef nonnull align 4 dereferenceable(8) %6)
  call void @llvm.lifetime.end.p0(i64 8, ptr nonnull %6) #18
  call void @llvm.lifetime.start.p0(i64 16, ptr nonnull %7) #18
  store <2 x float> <float 0x3FECDCDD00000000, float 0x3FE3333340000000>, ptr %7, align 8
  %13 = getelementptr inbounds nuw i8, ptr %7, i64 8
  store <2 x float> <float 0x3FE3333340000000, float 1.000000e+00>, ptr %13, align 8
  call void @_ZN5ImGui12TextColoredVERK6ImVec4PKcP13__va_list_tag(ptr noundef nonnull align 4 dereferenceable(16) %7, ptr noundef %3, ptr noundef nonnull %5)
  call void @llvm.lifetime.end.p0(i64 16, ptr nonnull %7) #18
  call void @_ZN5ImGui7PopFontEv()
  call void @_ZN5ImGui3EndEv()
  call void @llvm.va_end.p0(ptr nonnull %5)
  call void @llvm.lifetime.end.p0(i64 24, ptr nonnull %5) #18
  ret void
}